; ModuleID = '44/828.c'
source_filename = "44/828.c"
target datalayout = "e-m:e-p270:32:32-p271:32:32-p272:64:64-i64:64-f80:128-n8:16:32:64-S128"
target triple = "x86_64-pc-linux-gnu"

@.str = private unnamed_addr constant [18 x i8] c"%d\0A%d\0A%d\0A%d\0A%d\0A%d\00", align 1
@.str.1 = private unnamed_addr constant [3 x i8] c"0\0A\00", align 1
@.str.2 = private unnamed_addr constant [4 x i8] c"%d\0A\00", align 1

; Function Attrs: noinline nounwind uwtable
define dso_local i32 @reverse(i32 %0) #0 {
  %2 = alloca i32, align 4
  %3 = alloca i32, align 4
  %4 = alloca i32, align 4
  %5 = alloca i32, align 4
  store i32 %0, i32* %2, align 4
  store i32 0, i32* %3, align 4
  br label %6

6:                                                ; preds = %14, %1
  %7 = load i32, i32* %3, align 4
  %8 = sitofp i32 %7 to double
  %9 = call double @pow(double 1.000000e+01, double %8) #3
  %10 = fptosi double %9 to i32
  %11 = load i32, i32* %2, align 4
  %12 = icmp sle i32 %10, %11
  br i1 %12, label %13, label %17

13:                                               ; preds = %6
  br label %14

14:                                               ; preds = %13
  %15 = load i32, i32* %3, align 4
  %16 = add nsw i32 %15, 1
  store i32 %16, i32* %3, align 4
  br label %6

17:                                               ; preds = %6
  %18 = load i32, i32* %3, align 4
  store i32 %18, i32* %4, align 4
  store i32 0, i32* %5, align 4
  store i32 0, i32* %3, align 4
  br label %19

19:                                               ; preds = %38, %17
  %20 = load i32, i32* %3, align 4
  %21 = load i32, i32* %4, align 4
  %22 = icmp slt i32 %20, %21
  br i1 %22, label %23, label %41

23:                                               ; preds = %19
  %24 = load i32, i32* %2, align 4
  %25 = srem i32 %24, 10
  %26 = load i32, i32* %4, align 4
  %27 = load i32, i32* %3, align 4
  %28 = sub nsw i32 %26, %27
  %29 = sub nsw i32 %28, 1
  %30 = sitofp i32 %29 to double
  %31 = call double @pow(double 1.000000e+01, double %30) #3
  %32 = fptosi double %31 to i32
  %33 = mul nsw i32 %25, %32
  %34 = load i32, i32* %5, align 4
  %35 = add nsw i32 %34, %33
  store i32 %35, i32* %5, align 4
  %36 = load i32, i32* %2, align 4
  %37 = sdiv i32 %36, 10
  store i32 %37, i32* %2, align 4
  br label %38

38:                                               ; preds = %23
  %39 = load i32, i32* %3, align 4
  %40 = add nsw i32 %39, 1
  store i32 %40, i32* %3, align 4
  br label %19

41:                                               ; preds = %19
  %42 = load i32, i32* %5, align 4
  ret i32 %42
}

; Function Attrs: nounwind
declare dso_local double @pow(double, double) #1

; Function Attrs: noinline nounwind uwtable
define dso_local i32 @main() #0 {
  %1 = alloca i32, align 4
  %2 = alloca [6 x i32], align 16
  %3 = alloca i32, align 4
  %4 = alloca i32, align 4
  store i32 0, i32* %1, align 4
  %5 = getelementptr inbounds [6 x i32], [6 x i32]* %2, i64 0, i64 0
  %6 = getelementptr inbounds [6 x i32], [6 x i32]* %2, i64 0, i64 1
  %7 = getelementptr inbounds [6 x i32], [6 x i32]* %2, i64 0, i64 2
  %8 = getelementptr inbounds [6 x i32], [6 x i32]* %2, i64 0, i64 3
  %9 = getelementptr inbounds [6 x i32], [6 x i32]* %2, i64 0, i64 4
  %10 = getelementptr inbounds [6 x i32], [6 x i32]* %2, i64 0, i64 5
  %11 = call i32 (i8*, ...) @__isoc99_scanf(i8* getelementptr inbounds ([18 x i8], [18 x i8]* @.str, i64 0, i64 0), i32* %5, i32* %6, i32* %7, i32* %8, i32* %9, i32* %10)
  store i32 0, i32* %4, align 4
  br label %12

12:                                               ; preds = %49, %0
  %13 = load i32, i32* %4, align 4
  %14 = icmp slt i32 %13, 6
  br i1 %14, label %15, label %52

15:                                               ; preds = %12
  %16 = load i32, i32* %4, align 4
  %17 = sext i32 %16 to i64
  %18 = getelementptr inbounds [6 x i32], [6 x i32]* %2, i64 0, i64 %17
  %19 = load i32, i32* %18, align 4
  %20 = icmp eq i32 %19, 0
  br i1 %20, label %21, label %23

21:                                               ; preds = %15
  %22 = call i32 (i8*, ...) @printf(i8* getelementptr inbounds ([3 x i8], [3 x i8]* @.str.1, i64 0, i64 0))
  br label %48

23:                                               ; preds = %15
  %24 = load i32, i32* %4, align 4
  %25 = sext i32 %24 to i64
  %26 = getelementptr inbounds [6 x i32], [6 x i32]* %2, i64 0, i64 %25
  %27 = load i32, i32* %26, align 4
  store i32 %27, i32* %3, align 4
  %28 = load i32, i32* %4, align 4
  %29 = sext i32 %28 to i64
  %30 = getelementptr inbounds [6 x i32], [6 x i32]* %2, i64 0, i64 %29
  %31 = load i32, i32* %30, align 4
  %32 = icmp sgt i32 %31, 0
  br i1 %32, label %33, label %37

33:                                               ; preds = %23
  %34 = load i32, i32* %3, align 4
  %35 = call i32 @reverse(i32 %34)
  %36 = call i32 (i8*, ...) @printf(i8* getelementptr inbounds ([4 x i8], [4 x i8]* @.str.2, i64 0, i64 0), i32 %35)
  br label %47

37:                                               ; preds = %23
  %38 = load i32, i32* %4, align 4
  %39 = sext i32 %38 to i64
  %40 = getelementptr inbounds [6 x i32], [6 x i32]* %2, i64 0, i64 %39
  %41 = load i32, i32* %40, align 4
  %42 = sub nsw i32 0, %41
  store i32 %42, i32* %3, align 4
  %43 = load i32, i32* %3, align 4
  %44 = call i32 @reverse(i32 %43)
  %45 = sub nsw i32 0, %44
  %46 = call i32 (i8*, ...) @printf(i8* getelementptr inbounds ([4 x i8], [4 x i8]* @.str.2, i64 0, i64 0), i32 %45)
  br label %47

47:                                               ; preds = %37, %33
  br label %48

48:                                               ; preds = %47, %21
  br label %49

49:                                               ; preds = %48
  %50 = load i32, i32* %4, align 4
  %51 = add nsw i32 %50, 1
  store i32 %51, i32* %4, align 4
  br label %12

52:                                               ; preds = %12
  ret i32 0
}

declare dso_local i32 @__isoc99_scanf(i8*, ...) #2

declare dso_local i32 @printf(i8*, ...) #2


!llvm.module.flags = !{!0}
!llvm.ident = !{!1}

!0 = !{i32 1, !"wchar_size", i32 4}
!1 = !{!"clang version 10.0.0-4ubuntu1 "}
